(lp0
S'poi'
p1
aS'salary'
p2
aS'deferral_payments'
p3
aS'total_payments'
p4
aS'bonus'
p5
aS'restricted_stock_deferred'
p6
aS'deferred_income'
p7
aS'total_stock_value'
p8
aS'expenses'
p9
aS'exercised_stock_options'
p10
aS'other'
p11
aS'long_term_incentive'
p12
aS'restricted_stock'
p13
aS'director_fees'
p14
aS'proportion_from_poi'
p15
aS'proportion_to_poi'
p16
a.